Certificate:
    Data:
        Version: 3 (0x2)
        Serial Number:
            4f:32:b0:49:31:33:b7:1a:85:94:1f:35:f4:42:d0:93
        Signature Algorithm: sha256WithRSAEncryption
        Issuer: CN=rollout.cloudlinux.com
        Validity
            Not Before: Jan  8 23:32:37 2022 GMT
            Not After : Dec 23 23:32:37 2024 GMT
        Subject: CN=172171276
        Subject Public Key Info:
            Public Key Algorithm: rsaEncryption
                RSA Public-Key: (2048 bit)
                Modulus:
                    00:d7:32:1c:c7:29:92:30:a1:8b:b8:29:57:37:e9:
                    52:15:d8:93:61:6e:3f:ac:4e:5a:ad:ae:6d:1a:b7:
                    31:57:07:97:56:87:4f:0b:91:70:05:c7:7a:a8:21:
                    c8:ae:e6:99:ab:01:0f:e5:88:b8:2b:0f:28:32:e4:
                    c8:43:dc:19:5d:a0:85:1f:d8:ca:5b:ca:71:1d:91:
                    2c:8d:9a:09:04:13:c6:4d:8c:11:02:ce:a4:61:07:
                    38:ff:8f:23:56:91:fb:67:3b:b4:e3:53:1c:c5:f0:
                    62:c4:03:1c:a7:32:95:04:65:cd:b6:a5:0e:3a:cf:
                    fb:bd:ce:d3:b6:66:82:1c:45:79:25:b3:41:1b:3e:
                    d0:3f:0e:d2:2f:4b:aa:78:39:03:ab:d2:e8:7f:36:
                    c9:55:84:a9:54:aa:dd:f5:bc:31:1f:b2:ae:c5:e2:
                    b6:91:fe:05:d2:51:79:fd:af:64:dc:54:58:a5:7f:
                    a2:3c:d7:38:ec:b2:9f:3e:37:e0:25:ce:0d:7c:c4:
                    c3:99:6e:06:ac:c8:2b:57:0f:cf:5f:49:d7:b3:38:
                    26:6b:ee:07:8a:98:79:5a:77:dd:c3:21:d9:c1:39:
                    80:60:ed:18:f5:f2:ed:07:e3:db:d2:83:4d:52:c7:
                    a1:c8:0b:ef:ee:e0:94:9c:ae:30:4c:7c:11:75:d1:
                    81:87
                Exponent: 65537 (0x10001)
        X509v3 extensions:
            X509v3 Basic Constraints: 
                CA:FALSE
            X509v3 Subject Key Identifier: 
                45:05:0C:B1:6B:C0:04:63:4E:4F:3A:BA:BF:F2:D3:0C:D0:6C:28:DA
            X509v3 Authority Key Identifier: 
                keyid:EF:20:13:81:B7:FC:0B:8A:DE:D0:4F:36:5B:F0:D7:7D:CE:0A:B4:74
                DirName:/CN=rollout.cloudlinux.com
                serial:54:A0:92:6B:63:09:FE:5A:E5:CF:03:21:35:C7:05:4C:6A:3D:A3:39

            X509v3 Extended Key Usage: 
                TLS Web Client Authentication
            X509v3 Key Usage: 
                Digital Signature
    Signature Algorithm: sha256WithRSAEncryption
         b5:c4:2e:c1:72:58:23:88:7e:41:74:d4:7f:21:d9:1c:03:e8:
         bc:86:01:64:53:ae:72:22:ad:09:9d:13:31:30:7e:17:14:64:
         8e:2f:58:31:48:11:b2:be:07:48:52:05:52:95:9d:9d:a7:d2:
         94:c9:f3:d1:73:28:71:82:2a:59:32:08:8d:11:3e:fd:28:3c:
         4c:2d:a2:96:f4:76:ff:25:a0:21:5e:b2:50:58:32:f2:8b:53:
         97:06:de:67:c0:c9:e1:ea:0a:c9:a5:81:0e:2a:90:8b:30:02:
         28:41:1c:99:15:ac:1d:44:75:d5:45:68:b8:6e:50:9b:15:89:
         12:23:44:ff:be:16:2c:be:f6:c0:08:14:71:84:6a:7d:22:15:
         ce:18:fe:79:ac:3a:0d:35:9e:ae:e5:ef:fe:9d:6a:56:ff:6f:
         75:07:44:a0:23:79:a0:41:5e:aa:07:c3:57:2d:de:c2:de:8e:
         04:70:54:75:c4:26:0a:f5:a8:5e:2c:4b:b0:b7:57:2f:c8:17:
         95:7c:3a:6c:4c:79:30:a1:97:92:cf:ba:b5:25:28:55:78:9c:
         87:8d:22:72:40:50:46:6c:e3:ce:74:d6:e0:d9:5a:fb:1a:e7:
         73:07:da:bd:23:de:d0:5a:60:6f:2b:99:43:cb:ea:64:38:07:
         52:3c:aa:1c
-----BEGIN CERTIFICATE-----
MIIDbTCCAlWgAwIBAgIQTzKwSTEztxqFlB819ELQkzANBgkqhkiG9w0BAQsFADAh
MR8wHQYDVQQDDBZyb2xsb3V0LmNsb3VkbGludXguY29tMB4XDTIyMDEwODIzMzIz
N1oXDTI0MTIyMzIzMzIzN1owFDESMBAGA1UEAwwJMTcyMTcxMjc2MIIBIjANBgkq
hkiG9w0BAQEFAAOCAQ8AMIIBCgKCAQEA1zIcxymSMKGLuClXN+lSFdiTYW4/rE5a
ra5tGrcxVweXVodPC5FwBcd6qCHIruaZqwEP5Yi4Kw8oMuTIQ9wZXaCFH9jKW8px
HZEsjZoJBBPGTYwRAs6kYQc4/48jVpH7Zzu041McxfBixAMcpzKVBGXNtqUOOs/7
vc7TtmaCHEV5JbNBGz7QPw7SL0uqeDkDq9LofzbJVYSpVKrd9bwxH7KuxeK2kf4F
0lF5/a9k3FRYpX+iPNc47LKfPjfgJc4NfMTDmW4GrMgrVw/PX0nXszgma+4Hiph5
WnfdwyHZwTmAYO0Y9fLtB+Pb0oNNUsehyAvv7uCUnK4wTHwRddGBhwIDAQABo4Gt
MIGqMAkGA1UdEwQCMAAwHQYDVR0OBBYEFEUFDLFrwARjTk86ur/y0wzQbCjaMFwG
A1UdIwRVMFOAFO8gE4G3/AuK3tBPNlvw133OCrR0oSWkIzAhMR8wHQYDVQQDDBZy
b2xsb3V0LmNsb3VkbGludXguY29tghRUoJJrYwn+WuXPAyE1xwVMaj2jOTATBgNV
HSUEDDAKBggrBgEFBQcDAjALBgNVHQ8EBAMCB4AwDQYJKoZIhvcNAQELBQADggEB
ALXELsFyWCOIfkF01H8h2RwD6LyGAWRTrnIirQmdEzEwfhcUZI4vWDFIEbK+B0hS
BVKVnZ2n0pTJ89FzKHGCKlkyCI0RPv0oPEwtopb0dv8loCFeslBYMvKLU5cG3mfA
yeHqCsmlgQ4qkIswAihBHJkVrB1EddVFaLhuUJsViRIjRP++Fiy+9sAIFHGEan0i
Fc4Y/nmsOg01nq7l7/6dalb/b3UHRKAjeaBBXqoHw1ct3sLejgRwVHXEJgr1qF4s
S7C3Vy/IF5V8OmxMeTChl5LPurUlKFV4nIeNInJAUEZs48501uDZWvsa53MH2r0j
3tBaYG8rmUPL6mQ4B1I8qhw=
-----END CERTIFICATE-----
